(lp0
(lp1
S'16752925'
p2
aS'16004'
p3
aS'1675'
p4
aS'3298033'
p5
aS'732010'
p6
aa(lp7
S'6996'
p8
aS'3941'
p9
aS'1026'
p10
aS'949550'
p11
aS'26839'
p12
aa(lp13
S'74995'
p14
aS'86306'
p15
aS'16761744'
p16
aS'1339839'
p17
aS'994244'
p18
aa(lp19
S'6837'
p20
aS'15712'
p21
aS'686'
p22
aS'1221641'
p23
aS'16755441'
p24
aa(lp25
S'29332'
p26
aS'25953'
p27
aS'9894'
p28
aS'1095482'
p29
aS'117086'
p30
aa(lp31
S'13669'
p32
aS'3385'
p33
aS'1454'
p34
aS'1517317'
p35
aS'16759010'
p36
aa(lp37
S'7527'
p38
aS'6713'
p39
aS'624'
p40
aS'603575'
p41
aS'19199'
p42
aa(lp43
S'1572'
p44
aS'1993'
p45
aS'1745'
p46
aS'331992'
p47
aS'31213'
p48
aa(lp49
S'5964'
p50
aS'20346'
p51
aS'9965'
p52
aS'16747197'
p53
aS'22991'
p54
aa(lp55
S'10580'
p56
aS'16748215'
p57
aS'6882'
p58
aS'365299'
p59
aS'554708'
p60
aa(lp61
S'14129'
p62
aS'20606'
p63
aS'3679'
p64
aS'281415'
p65
aS'44032'
p66
aa(lp67
S'17470'
p68
aS'3376'
p69
aS'1707'
p70
aS'1633878'
p71
aS'23624'
p72
aa(lp73
S'16754330'
p74
aS'16752579'
p75
aS'21461'
p76
aS'681161'
p77
aS'22358'
p78
aa(lp79
S'19372'
p80
aS'16753986'
p81
aS'16663'
p82
aS'1130427'
p83
aS'182282'
p84
aa(lp85
S'4991'
p86
aS'22887'
p87
aS'3236'
p88
aS'770855'
p89
aS'27398'
p90
aa(lp91
S'16755226'
p92
aS'21713'
p93
aS'4707'
p94
aS'801234'
p95
aS'16773594'
p96
aa(lp97
S'15086'
p98
aS'20664'
p99
aS'6077'
p100
aS'166972'
p101
aS'556174'
p102
aa(lp103
S'12065'
p104
aS'16756467'
p105
aS'23625'
p106
aS'493196'
p107
aS'329162'
p108
aa(lp109
S'10865'
p110
aS'17669'
p111
aS'11684'
p112
aS'659514'
p113
aS'115876'
p114
aa(lp115
S'8685'
p116
aS'9068'
p117
aS'4622'
p118
aS'545221'
p119
aS'46797'
p120
aa(lp121
S'2810'
p122
aS'1414'
p123
aS'338'
p124
aS'1053638'
p125
aS'5386'
p126
aa(lp127
S'16754022'
p128
aS'16608'
p129
aS'5758'
p130
aS'1347852'
p131
aS'97481'
p132
aa(lp133
S'11569'
p134
aS'16419'
p135
aS'5859'
p136
aS'7134'
p137
aS'58446'
p138
aa(lp139
S'51622'
p140
aS'77844'
p141
aS'14784'
p142
aS'1489932'
p143
aS'140858'
p144
aa(lp145
S'3050'
p146
aS'6931'
p147
aS'622'
p148
aS'473804'
p149
aS'16746854'
p150
aa(lp151
S'24539'
p152
aS'22409'
p153
aS'8650'
p154
aS'205047'
p155
aS'195769'
p156
aa(lp157
S'29654'
p158
aS'19067'
p159
aS'6899'
p160
aS'677258'
p161
aS'54998'
p162
aa(lp163
S'16750585'
p164
aS'19426'
p165
aS'5075'
p166
aS'818662'
p167
aS'239778'
p168
aa(lp169
S'4439'
p170
aS'17180'
p171
aS'3389'
p172
aS'16760248'
p173
aS'158781'
p174
aa(lp175
S'22505'
p176
aS'13883'
p177
aS'2401'
p178
aS'57202'
p179
aS'28299'
p180
aa(lp181
S'20508'
p182
aS'16753272'
p183
aS'4186'
p184
aS'1010888'
p185
aS'268419'
p186
aa(lp187
S'19619'
p188
aS'19969'
p189
aS'13479'
p190
aS'432127'
p191
aS'208651'
p192
aa(lp193
S'24713'
p194
aS'6847'
p195
aS'5646'
p196
aS'431296'
p197
aS'95335'
p198
aa(lp199
S'22229'
p200
aS'27741'
p201
aS'11975'
p202
aS'149945'
p203
aS'44001'
p204
aa(lp205
S'12879'
p206
aS'11197'
p207
aS'8339'
p208
aS'239736'
p209
aS'237813'
p210
aa(lp211
S'8842'
p212
aS'2375'
p213
aS'882'
p214
aS'685499'
p215
aS'16746731'
p216
aa(lp217
S'6034'
p218
aS'11311'
p219
aS'6100'
p220
aS'447737'
p221
aS'53446'
p222
aa(lp223
S'13530'
p224
aS'13263'
p225
aS'938'
p226
aS'523186'
p227
aS'70424'
p228
aa(lp229
S'18093'
p230
aS'30098'
p231
aS'11813'
p232
aS'277247'
p233
aS'77730'
p234
aa(lp235
S'6682'
p236
aS'8057'
p237
aS'9995'
p238
aS'16771607'
p239
aS'135182'
p240
aa.